target datalayout = "e-m:e-p270:32:32-p271:32:32-p272:64:64-i64:64-i128:128-f80:128-n8:16:32:64-S128"
target triple = "x86_64-pc-linux-gnu"

%"struct.base::SystemMemoryInfoKB" = type { i32, i32, i32, i32, i32, i32, i32, i32, i32, i32, i32, i32, i64, i64, i64 }

@_ZN4base18SystemMemoryInfoKBC1Ev = unnamed_addr alias void (ptr), ptr @_ZN4base18SystemMemoryInfoKBC2Ev

; Function Attrs: mustprogress uwtable
define noundef i64 @_ZN4base21GetSystemCommitChargeEv() #0 {
  %1 = alloca i64, align 8
  %2 = alloca %"struct.base::SystemMemoryInfoKB", align 8
  %3 = alloca i32, align 4
  call void @llvm.lifetime.start.p0(i64 72, ptr %2) #18
  call void @_ZN4base18SystemMemoryInfoKBC1Ev(ptr noundef nonnull align 8 dereferenceable(72) %2)
  %4 = call noundef zeroext i1 @_ZN4base19GetSystemMemoryInfoEPNS_18SystemMemoryInfoKBE(ptr noundef %2)
  br i1 %4, label %6, label %5

5:                                                ; preds = %0
  store i64 0, ptr %1, align 8
  store i32 1, ptr %3, align 4
  br label %19

6:                                                ; preds = %0
  %7 = getelementptr inbounds nuw %"struct.base::SystemMemoryInfoKB", ptr %2, i32 0, i32 0
  %8 = load i32, ptr %7, align 8, !tbaa !101
  %9 = getelementptr inbounds nuw %"struct.base::SystemMemoryInfoKB", ptr %2, i32 0, i32 1
  %10 = load i32, ptr %9, align 4, !tbaa !103
  %11 = sub nsw i32 %8, %10
  %12 = getelementptr inbounds nuw %"struct.base::SystemMemoryInfoKB", ptr %2, i32 0, i32 5
  %13 = load i32, ptr %12, align 4, !tbaa !104
  %14 = sub nsw i32 %11, %13
  %15 = getelementptr inbounds nuw %"struct.base::SystemMemoryInfoKB", ptr %2, i32 0, i32 6
  %16 = load i32, ptr %15, align 8, !tbaa !105
  %17 = sub nsw i32 %14, %16
  %18 = sext i32 %17 to i64
  store i64 %18, ptr %1, align 8
  store i32 1, ptr %3, align 4
  br label %19

19:                                               ; preds = %6, %5
  call void @llvm.lifetime.end.p0(i64 72, ptr %2) #18
  %20 = load i64, ptr %1, align 8
  ret i64 %20
}