; Function Attrs: mustprogress uwtable
define noundef range(i64 -2147483648, 2147483648) i64 @_ZN4base21GetSystemCommitChargeEv() local_unnamed_addr #0 {
  %1 = alloca %"struct.base::SystemMemoryInfoKB", align 8
  call void @llvm.lifetime.start.p0(i64 72, ptr nonnull %1) #25
  call void @_ZN4base18SystemMemoryInfoKBC1Ev(ptr noundef nonnull align 8 dereferenceable(72) %1)
  %2 = call noundef zeroext i1 @_ZN4base19GetSystemMemoryInfoEPNS_18SystemMemoryInfoKBE(ptr noundef nonnull %1)
  br i1 %2, label %3, label %15

3:                                                ; preds = %0
  %4 = load i32, ptr %1, align 8, !tbaa !61
  %5 = getelementptr inbounds nuw i8, ptr %1, i64 4
  %6 = load i32, ptr %5, align 4, !tbaa !63
  %7 = getelementptr inbounds nuw i8, ptr %1, i64 20
  %8 = load i32, ptr %7, align 4, !tbaa !64
  %9 = getelementptr inbounds nuw i8, ptr %1, i64 24
  %10 = load i32, ptr %9, align 8, !tbaa !65
  %11 = add i32 %6, %8
  %12 = add i32 %11, %10
  %13 = sub i32 %4, %12
  %14 = sext i32 %13 to i64
  br label %15

15:                                               ; preds = %0, %3
  %.0 = phi i64 [ %14, %3 ], [ 0, %0 ]
  call void @llvm.lifetime.end.p0(i64 72, ptr nonnull %1) #25
  ret i64 %.0
}